target datalayout = "e-m:e-p270:32:32-p271:32:32-p272:64:64-i64:64-i128:128-f80:128-n8:16:32:64-S128"
target triple = "x86_64-pc-linux-gnu"

%struct.PJconsts = type { ptr, ptr, ptr, ptr, ptr, ptr, ptr, ptr, ptr, ptr, ptr, ptr, i32, ptr, ptr, ptr, ptr, ptr, ptr, ptr, ptr, double, double, double, double, double, double, double, double, double, double, double, double, double, double, double, double, double, double, double, double, double, double, i32, i32, i32, i32, i32, i32, i32, i32, i32, i32, i32, ptr, ptr, ptr, ptr, ptr, ptr, double, double, double, double, double, double, double, double, double, double, double, i32, [7 x double], i32, ptr, ptr, double, double, i32, [4 x i8], %"class.std::shared_ptr", i8, double, i8, %"class.std::__cxx11::basic_string", %"class.std::__cxx11::basic_string", %"class.std::__cxx11::basic_string", i8, %"class.std::vector", i32, %"class.std::vector.3", i32, i8, i8, i8, ptr }
%"class.std::shared_ptr" = type { %"class.std::__shared_ptr" }
%"class.std::__shared_ptr" = type { ptr, %"class.std::__shared_count" }
%"class.std::__shared_count" = type { ptr }
%"class.std::__cxx11::basic_string" = type { %"struct.std::__cxx11::basic_string<char>::_Alloc_hider", i64, %union.anon }
%"struct.std::__cxx11::basic_string<char>::_Alloc_hider" = type { ptr }
%union.anon = type { i64, [8 x i8] }
%"class.std::vector" = type { %"struct.std::_Vector_base" }
%"struct.std::_Vector_base" = type { %"struct.std::_Vector_base<osgeo::proj::operation::GridDescription, std::allocator<osgeo::proj::operation::GridDescription>>::_Vector_impl" }
%"struct.std::_Vector_base<osgeo::proj::operation::GridDescription, std::allocator<osgeo::proj::operation::GridDescription>>::_Vector_impl" = type { %"struct.std::_Vector_base<osgeo::proj::operation::GridDescription, std::allocator<osgeo::proj::operation::GridDescription>>::_Vector_impl_data" }
%"struct.std::_Vector_base<osgeo::proj::operation::GridDescription, std::allocator<osgeo::proj::operation::GridDescription>>::_Vector_impl_data" = type { ptr, ptr, ptr }
%"class.std::vector.3" = type { %"struct.std::_Vector_base.4" }
%"struct.std::_Vector_base.4" = type { %"struct.std::_Vector_base<PJCoordOperation, std::allocator<PJCoordOperation>>::_Vector_impl" }
%"struct.std::_Vector_base<PJCoordOperation, std::allocator<PJCoordOperation>>::_Vector_impl" = type { %"struct.std::_Vector_base<PJCoordOperation, std::allocator<PJCoordOperation>>::_Vector_impl_data" }
%"struct.std::_Vector_base<PJCoordOperation, std::allocator<PJCoordOperation>>::_Vector_impl_data" = type { ptr, ptr, ptr }
%union.PROJVALUE = type { double }
%"struct.(anonymous namespace)::pj_geos_data" = type { double, double, double, double, double, double, double, i32 }

@.str.1 = private unnamed_addr constant [3 x i8] c"dh\00", align 1
@.str.2 = private unnamed_addr constant [7 x i8] c"ssweep\00", align 1
@.str.3 = private unnamed_addr constant [55 x i8] c"Invalid value for sweep: it should be equal to x or y.\00", align 1
@.str.4 = private unnamed_addr constant [21 x i8] c"Invalid value for h.\00", align 1

; Function Attrs: mustprogress uwtable
define hidden noundef ptr @_Z33pj_projection_specific_setup_geosP8PJconsts(ptr noundef %0) #0 {
  %2 = alloca ptr, align 8
  %3 = alloca ptr, align 8
  %4 = alloca ptr, align 8
  %5 = alloca ptr, align 8
  %6 = alloca i32, align 4
  %7 = alloca %union.PROJVALUE, align 8
  %8 = alloca %union.PROJVALUE, align 8
  store ptr %0, ptr %3, align 8, !tbaa !3
  call void @llvm.lifetime.start.p0(i64 8, ptr %4) #8
  call void @llvm.lifetime.start.p0(i64 8, ptr %5) #8
  %9 = call noalias ptr @calloc(i64 noundef 1, i64 noundef 64) #9
  store ptr %9, ptr %5, align 8, !tbaa !41
  %10 = load ptr, ptr %5, align 8, !tbaa !41
  %11 = icmp eq ptr null, %10
  br i1 %11, label %12, label %15

12:                                               ; preds = %1
  %13 = load ptr, ptr %3, align 8, !tbaa !3
  %14 = call noundef ptr @_Z21pj_default_destructorP8PJconstsi(ptr noundef %13, i32 noundef 4096)
  store ptr %14, ptr %2, align 8
  store i32 1, ptr %6, align 4
  br label %156

15:                                               ; preds = %1
  %16 = load ptr, ptr %5, align 8, !tbaa !41
  %17 = load ptr, ptr %3, align 8, !tbaa !3
  %18 = getelementptr inbounds nuw %struct.PJconsts, ptr %17, i32 0, i32 11
  store ptr %16, ptr %18, align 8, !tbaa !43
  call void @llvm.lifetime.start.p0(i64 8, ptr %7) #8
  %19 = load ptr, ptr %3, align 8, !tbaa !3
  %20 = getelementptr inbounds nuw %struct.PJconsts, ptr %19, i32 0, i32 0
  %21 = load ptr, ptr %20, align 8, !tbaa !44
  %22 = load ptr, ptr %3, align 8, !tbaa !3
  %23 = getelementptr inbounds nuw %struct.PJconsts, ptr %22, i32 0, i32 3
  %24 = load ptr, ptr %23, align 8, !tbaa !45
  %25 = call i64 @_Z8pj_paramP6pj_ctxP8ARG_listPKc(ptr noundef %21, ptr noundef %24, ptr noundef @.str.1)
  %26 = getelementptr inbounds nuw %union.PROJVALUE, ptr %7, i32 0, i32 0
  store i64 %25, ptr %26, align 8
  %27 = load double, ptr %7, align 8, !tbaa !46
  %28 = load ptr, ptr %5, align 8, !tbaa !41
  %29 = getelementptr inbounds nuw %"struct.(anonymous namespace)::pj_geos_data", ptr %28, i32 0, i32 0
  store double %27, ptr %29, align 8, !tbaa !47
  call void @llvm.lifetime.end.p0(i64 8, ptr %7) #8
  call void @llvm.lifetime.start.p0(i64 8, ptr %8) #8
  %30 = load ptr, ptr %3, align 8, !tbaa !3
  %31 = getelementptr inbounds nuw %struct.PJconsts, ptr %30, i32 0, i32 0
  %32 = load ptr, ptr %31, align 8, !tbaa !44
  %33 = load ptr, ptr %3, align 8, !tbaa !3
  %34 = getelementptr inbounds nuw %struct.PJconsts, ptr %33, i32 0, i32 3
  %35 = load ptr, ptr %34, align 8, !tbaa !45
  %36 = call i64 @_Z8pj_paramP6pj_ctxP8ARG_listPKc(ptr noundef %32, ptr noundef %35, ptr noundef @.str.2)
  %37 = getelementptr inbounds nuw %union.PROJVALUE, ptr %8, i32 0, i32 0
  store i64 %36, ptr %37, align 8
  %38 = load ptr, ptr %8, align 8, !tbaa !46
  store ptr %38, ptr %4, align 8, !tbaa !49
  call void @llvm.lifetime.end.p0(i64 8, ptr %8) #8
  %39 = load ptr, ptr %4, align 8, !tbaa !49
  %40 = icmp eq ptr %39, null
  br i1 %40, label %41, label %44

41:                                               ; preds = %15
  %42 = load ptr, ptr %5, align 8, !tbaa !41
  %43 = getelementptr inbounds nuw %"struct.(anonymous namespace)::pj_geos_data", ptr %42, i32 0, i32 7
  store i32 0, ptr %43, align 8, !tbaa !50
  br label %79

44:                                               ; preds = %15
  %45 = load ptr, ptr %4, align 8, !tbaa !49
  %46 = getelementptr inbounds i8, ptr %45, i64 0
  %47 = load i8, ptr %46, align 1, !tbaa !46
  %48 = sext i8 %47 to i32
  %49 = icmp ne i32 %48, 120
  br i1 %49, label %50, label %56

50:                                               ; preds = %44
  %51 = load ptr, ptr %4, align 8, !tbaa !49
  %52 = getelementptr inbounds i8, ptr %51, i64 0
  %53 = load i8, ptr %52, align 1, !tbaa !46
  %54 = sext i8 %53 to i32
  %55 = icmp ne i32 %54, 121
  br i1 %55, label %62, label %56

56:                                               ; preds = %50, %44
  %57 = load ptr, ptr %4, align 8, !tbaa !49
  %58 = getelementptr inbounds i8, ptr %57, i64 1
  %59 = load i8, ptr %58, align 1, !tbaa !46
  %60 = sext i8 %59 to i32
  %61 = icmp ne i32 %60, 0
  br i1 %61, label %62, label %66

62:                                               ; preds = %56, %50
  %63 = load ptr, ptr %3, align 8, !tbaa !3
  call void (ptr, ptr, ...) @_Z14proj_log_errorPK8PJconstsPKcz(ptr noundef %63, ptr noundef @.str.3)
  %64 = load ptr, ptr %3, align 8, !tbaa !3
  %65 = call noundef ptr @_Z21pj_default_destructorP8PJconstsi(ptr noundef %64, i32 noundef 1027)
  store ptr %65, ptr %2, align 8
  store i32 1, ptr %6, align 4
  br label %156

66:                                               ; preds = %56
  %67 = load ptr, ptr %4, align 8, !tbaa !49
  %68 = getelementptr inbounds i8, ptr %67, i64 0
  %69 = load i8, ptr %68, align 1, !tbaa !46
  %70 = sext i8 %69 to i32
  %71 = icmp eq i32 %70, 120
  br i1 %71, label %72, label %75

72:                                               ; preds = %66
  %73 = load ptr, ptr %5, align 8, !tbaa !41
  %74 = getelementptr inbounds nuw %"struct.(anonymous namespace)::pj_geos_data", ptr %73, i32 0, i32 7
  store i32 1, ptr %74, align 8, !tbaa !50
  br label %78

75:                                               ; preds = %66
  %76 = load ptr, ptr %5, align 8, !tbaa !41
  %77 = getelementptr inbounds nuw %"struct.(anonymous namespace)::pj_geos_data", ptr %76, i32 0, i32 7
  store i32 0, ptr %77, align 8, !tbaa !50
  br label %78

78:                                               ; preds = %75, %72
  br label %79

79:                                               ; preds = %78, %41
  %80 = load ptr, ptr %5, align 8, !tbaa !41
  %81 = getelementptr inbounds nuw %"struct.(anonymous namespace)::pj_geos_data", ptr %80, i32 0, i32 0
  %82 = load double, ptr %81, align 8, !tbaa !47
  %83 = load ptr, ptr %3, align 8, !tbaa !3
  %84 = getelementptr inbounds nuw %struct.PJconsts, ptr %83, i32 0, i32 21
  %85 = load double, ptr %84, align 8, !tbaa !51
  %86 = fdiv double %82, %85
  %87 = load ptr, ptr %5, align 8, !tbaa !41
  %88 = getelementptr inbounds nuw %"struct.(anonymous namespace)::pj_geos_data", ptr %87, i32 0, i32 5
  store double %86, ptr %88, align 8, !tbaa !52
  %89 = load ptr, ptr %5, align 8, !tbaa !41
  %90 = getelementptr inbounds nuw %"struct.(anonymous namespace)::pj_geos_data", ptr %89, i32 0, i32 5
  %91 = load double, ptr %90, align 8, !tbaa !52
  %92 = fcmp ole double %91, 0.000000e+00
  br i1 %92, label %98, label %93

93:                                               ; preds = %79
  %94 = load ptr, ptr %5, align 8, !tbaa !41
  %95 = getelementptr inbounds nuw %"struct.(anonymous namespace)::pj_geos_data", ptr %94, i32 0, i32 5
  %96 = load double, ptr %95, align 8, !tbaa !52
  %97 = fcmp ogt double %96, 1.000000e+10
  br i1 %97, label %98, label %102

98:                                               ; preds = %93, %79
  %99 = load ptr, ptr %3, align 8, !tbaa !3
  call void (ptr, ptr, ...) @_Z14proj_log_errorPK8PJconstsPKcz(ptr noundef %99, ptr noundef @.str.4)
  %100 = load ptr, ptr %3, align 8, !tbaa !3
  %101 = call noundef ptr @_Z21pj_default_destructorP8PJconstsi(ptr noundef %100, i32 noundef 1027)
  store ptr %101, ptr %2, align 8
  store i32 1, ptr %6, align 4
  br label %156

102:                                              ; preds = %93
  %103 = load ptr, ptr %5, align 8, !tbaa !41
  %104 = getelementptr inbounds nuw %"struct.(anonymous namespace)::pj_geos_data", ptr %103, i32 0, i32 5
  %105 = load double, ptr %104, align 8, !tbaa !52
  %106 = fadd double 1.000000e+00, %105
  %107 = load ptr, ptr %5, align 8, !tbaa !41
  %108 = getelementptr inbounds nuw %"struct.(anonymous namespace)::pj_geos_data", ptr %107, i32 0, i32 4
  store double %106, ptr %108, align 8, !tbaa !53
  %109 = load ptr, ptr %5, align 8, !tbaa !41
  %110 = getelementptr inbounds nuw %"struct.(anonymous namespace)::pj_geos_data", ptr %109, i32 0, i32 4
  %111 = load double, ptr %110, align 8, !tbaa !53
  %112 = load ptr, ptr %5, align 8, !tbaa !41
  %113 = getelementptr inbounds nuw %"struct.(anonymous namespace)::pj_geos_data", ptr %112, i32 0, i32 4
  %114 = load double, ptr %113, align 8, !tbaa !53
  %115 = call double @llvm.fmuladd.f64(double %111, double %114, double -1.000000e+00)
  %116 = load ptr, ptr %5, align 8, !tbaa !41
  %117 = getelementptr inbounds nuw %"struct.(anonymous namespace)::pj_geos_data", ptr %116, i32 0, i32 6
  store double %115, ptr %117, align 8, !tbaa !54
  %118 = load ptr, ptr %3, align 8, !tbaa !3
  %119 = getelementptr inbounds nuw %struct.PJconsts, ptr %118, i32 0, i32 27
  %120 = load double, ptr %119, align 8, !tbaa !55
  %121 = fcmp une double %120, 0.000000e+00
  br i1 %121, label %122, label %143

122:                                              ; preds = %102
  %123 = load ptr, ptr %3, align 8, !tbaa !3
  %124 = getelementptr inbounds nuw %struct.PJconsts, ptr %123, i32 0, i32 32
  %125 = load double, ptr %124, align 8, !tbaa !56
  %126 = call double @sqrt(double noundef %125) #8, !tbaa !57
  %127 = load ptr, ptr %5, align 8, !tbaa !41
  %128 = getelementptr inbounds nuw %"struct.(anonymous namespace)::pj_geos_data", ptr %127, i32 0, i32 1
  store double %126, ptr %128, align 8, !tbaa !58
  %129 = load ptr, ptr %3, align 8, !tbaa !3
  %130 = getelementptr inbounds nuw %struct.PJconsts, ptr %129, i32 0, i32 32
  %131 = load double, ptr %130, align 8, !tbaa !56
  %132 = load ptr, ptr %5, align 8, !tbaa !41
  %133 = getelementptr inbounds nuw %"struct.(anonymous namespace)::pj_geos_data", ptr %132, i32 0, i32 2
  store double %131, ptr %133, align 8, !tbaa !59
  %134 = load ptr, ptr %3, align 8, !tbaa !3
  %135 = getelementptr inbounds nuw %struct.PJconsts, ptr %134, i32 0, i32 33
  %136 = load double, ptr %135, align 8, !tbaa !60
  %137 = load ptr, ptr %5, align 8, !tbaa !41
  %138 = getelementptr inbounds nuw %"struct.(anonymous namespace)::pj_geos_data", ptr %137, i32 0, i32 3
  store double %136, ptr %138, align 8, !tbaa !61
  %139 = load ptr, ptr %3, align 8, !tbaa !3
  %140 = getelementptr inbounds nuw %struct.PJconsts, ptr %139, i32 0, i32 14
  store ptr @_ZL14geos_e_inverse5PJ_XYP8PJconsts, ptr %140, align 8, !tbaa !62
  %141 = load ptr, ptr %3, align 8, !tbaa !3
  %142 = getelementptr inbounds nuw %struct.PJconsts, ptr %141, i32 0, i32 13
  store ptr @_ZL14geos_e_forward5PJ_LPP8PJconsts, ptr %142, align 8, !tbaa !63
  br label %154

143:                                              ; preds = %102
  %144 = load ptr, ptr %5, align 8, !tbaa !41
  %145 = getelementptr inbounds nuw %"struct.(anonymous namespace)::pj_geos_data", ptr %144, i32 0, i32 3
  store double 1.000000e+00, ptr %145, align 8, !tbaa !61
  %146 = load ptr, ptr %5, align 8, !tbaa !41
  %147 = getelementptr inbounds nuw %"struct.(anonymous namespace)::pj_geos_data", ptr %146, i32 0, i32 2
  store double 1.000000e+00, ptr %147, align 8, !tbaa !59
  %148 = load ptr, ptr %5, align 8, !tbaa !41
  %149 = getelementptr inbounds nuw %"struct.(anonymous namespace)::pj_geos_data", ptr %148, i32 0, i32 1
  store double 1.000000e+00, ptr %149, align 8, !tbaa !58
  %150 = load ptr, ptr %3, align 8, !tbaa !3
  %151 = getelementptr inbounds nuw %struct.PJconsts, ptr %150, i32 0, i32 14
  store ptr @_ZL14geos_s_inverse5PJ_XYP8PJconsts, ptr %151, align 8, !tbaa !62
  %152 = load ptr, ptr %3, align 8, !tbaa !3
  %153 = getelementptr inbounds nuw %struct.PJconsts, ptr %152, i32 0, i32 13
  store ptr @_ZL14geos_s_forward5PJ_LPP8PJconsts, ptr %153, align 8, !tbaa !63
  br label %154

154:                                              ; preds = %143, %122
  %155 = load ptr, ptr %3, align 8, !tbaa !3
  store ptr %155, ptr %2, align 8
  store i32 1, ptr %6, align 4
  br label %156

156:                                              ; preds = %154, %98, %62, %12
  call void @llvm.lifetime.end.p0(i64 8, ptr %5) #8
  call void @llvm.lifetime.end.p0(i64 8, ptr %4) #8
  %157 = load ptr, ptr %2, align 8
  ret ptr %157
}