; Function Attrs: mustprogress uwtable
define hidden noundef ptr @_Z33pj_projection_specific_setup_geosP8PJconsts(ptr noundef %0) local_unnamed_addr #0 {
  %2 = tail call noalias dereferenceable_or_null(64) ptr @calloc(i64 noundef 1, i64 noundef 64) #7
  %3 = icmp eq ptr %2, null
  br i1 %3, label %4, label %6

4:                                                ; preds = %1
  %5 = tail call noundef ptr @_Z21pj_default_destructorP8PJconstsi(ptr noundef %0, i32 noundef 4096)
  br label %66

6:                                                ; preds = %1
  %7 = getelementptr inbounds nuw i8, ptr %0, i64 88
  store ptr %2, ptr %7, align 8, !tbaa !40
  %8 = load ptr, ptr %0, align 8, !tbaa !41
  %9 = getelementptr inbounds nuw i8, ptr %0, i64 24
  %10 = load ptr, ptr %9, align 8, !tbaa !42
  %11 = tail call i64 @_Z8pj_paramP6pj_ctxP8ARG_listPKc(ptr noundef %8, ptr noundef %10, ptr noundef nonnull @.str.1)
  store i64 %11, ptr %2, align 8, !tbaa !43
  %12 = load ptr, ptr %0, align 8, !tbaa !41
  %13 = load ptr, ptr %9, align 8, !tbaa !42
  %14 = tail call i64 @_Z8pj_paramP6pj_ctxP8ARG_listPKc(ptr noundef %12, ptr noundef %13, ptr noundef nonnull @.str.2)
  %.sroa.0.0..sroa.0.0..cast = inttoptr i64 %14 to ptr
  %15 = icmp eq i64 %14, 0
  br i1 %15, label %16, label %18

16:                                               ; preds = %6
  %17 = getelementptr inbounds nuw i8, ptr %2, i64 56
  store i32 0, ptr %17, align 8, !tbaa !45
  br label %31

18:                                               ; preds = %6
  %19 = load i8, ptr %.sroa.0.0..sroa.0.0..cast, align 1, !tbaa !46
  %20 = and i8 %19, -2
  %switch = icmp eq i8 %20, 120
  br i1 %switch, label %21, label %24

21:                                               ; preds = %18
  %22 = getelementptr inbounds nuw i8, ptr %.sroa.0.0..sroa.0.0..cast, i64 1
  %23 = load i8, ptr %22, align 1, !tbaa !46
  %.not52 = icmp eq i8 %23, 0
  br i1 %.not52, label %26, label %24

24:                                               ; preds = %18, %21
  tail call void (ptr, ptr, ...) @_Z14proj_log_errorPK8PJconstsPKcz(ptr noundef nonnull %0, ptr noundef nonnull @.str.3)
  %25 = tail call noundef ptr @_Z21pj_default_destructorP8PJconstsi(ptr noundef nonnull %0, i32 noundef 1027)
  br label %66

26:                                               ; preds = %21
  %27 = icmp eq i8 %19, 120
  %28 = getelementptr inbounds nuw i8, ptr %2, i64 56
  br i1 %27, label %29, label %30

29:                                               ; preds = %26
  store i32 1, ptr %28, align 8, !tbaa !45
  br label %31

30:                                               ; preds = %26
  store i32 0, ptr %28, align 8, !tbaa !45
  br label %31

31:                                               ; preds = %29, %30, %16
  %32 = load double, ptr %2, align 8, !tbaa !43
  %33 = getelementptr inbounds nuw i8, ptr %0, i64 168
  %34 = load double, ptr %33, align 8, !tbaa !47
  %35 = fdiv double %32, %34
  %36 = getelementptr inbounds nuw i8, ptr %2, i64 40
  store double %35, ptr %36, align 8, !tbaa !48
  %37 = fcmp ole double %35, 0.000000e+00
  %38 = fcmp ogt double %35, 1.000000e+10
  %or.cond = or i1 %37, %38
  br i1 %or.cond, label %39, label %41

39:                                               ; preds = %31
  tail call void (ptr, ptr, ...) @_Z14proj_log_errorPK8PJconstsPKcz(ptr noundef nonnull %0, ptr noundef nonnull @.str.4)
  %40 = tail call noundef ptr @_Z21pj_default_destructorP8PJconstsi(ptr noundef nonnull %0, i32 noundef 1027)
  br label %66

41:                                               ; preds = %31
  %42 = fadd double %35, 1.000000e+00
  %43 = getelementptr inbounds nuw i8, ptr %2, i64 32
  store double %42, ptr %43, align 8, !tbaa !49
  %44 = tail call double @llvm.fmuladd.f64(double %42, double %42, double -1.000000e+00)
  %45 = getelementptr inbounds nuw i8, ptr %2, i64 48
  store double %44, ptr %45, align 8, !tbaa !50
  %46 = getelementptr inbounds nuw i8, ptr %0, i64 216
  %47 = load double, ptr %46, align 8, !tbaa !51
  %48 = fcmp une double %47, 0.000000e+00
  br i1 %48, label %49, label %60

49:                                               ; preds = %41
  %50 = getelementptr inbounds nuw i8, ptr %0, i64 256
  %51 = load double, ptr %50, align 8, !tbaa !52
  %52 = tail call double @sqrt(double noundef %51) #8, !tbaa !53
  %53 = getelementptr inbounds nuw i8, ptr %2, i64 8
  store double %52, ptr %53, align 8, !tbaa !54
  %54 = getelementptr inbounds nuw i8, ptr %2, i64 16
  store double %51, ptr %54, align 8, !tbaa !55
  %55 = getelementptr inbounds nuw i8, ptr %0, i64 264
  %56 = load double, ptr %55, align 8, !tbaa !56
  %57 = getelementptr inbounds nuw i8, ptr %2, i64 24
  store double %56, ptr %57, align 8, !tbaa !57
  %58 = getelementptr inbounds nuw i8, ptr %0, i64 112
  store ptr @_ZL14geos_e_inverse5PJ_XYP8PJconsts, ptr %58, align 8, !tbaa !58
  %59 = getelementptr inbounds nuw i8, ptr %0, i64 104
  store ptr @_ZL14geos_e_forward5PJ_LPP8PJconsts, ptr %59, align 8, !tbaa !59
  br label %66

60:                                               ; preds = %41
  %61 = getelementptr inbounds nuw i8, ptr %2, i64 24
  store double 1.000000e+00, ptr %61, align 8, !tbaa !57
  %62 = getelementptr inbounds nuw i8, ptr %2, i64 16
  store double 1.000000e+00, ptr %62, align 8, !tbaa !55
  %63 = getelementptr inbounds nuw i8, ptr %2, i64 8
  store double 1.000000e+00, ptr %63, align 8, !tbaa !54
  %64 = getelementptr inbounds nuw i8, ptr %0, i64 112
  store ptr @_ZL14geos_s_inverse5PJ_XYP8PJconsts, ptr %64, align 8, !tbaa !58
  %65 = getelementptr inbounds nuw i8, ptr %0, i64 104
  store ptr @_ZL14geos_s_forward5PJ_LPP8PJconsts, ptr %65, align 8, !tbaa !59
  br label %66

66:                                               ; preds = %49, %60, %39, %24, %4
  %.0 = phi ptr [ %5, %4 ], [ %40, %39 ], [ %25, %24 ], [ %0, %60 ], [ %0, %49 ]
  ret ptr %.0
}